ccopy_reg
_reconstructor
p1
(cfoobnix.fc.fc_base
FCBase
p2
c__builtin__
object
p3
NtRp4
(dp5
S'lfm_password'
p6
S'l_pass_'
p7
sS'lfm_login'
p8
S'l_user_'
p9
sS'uuid'
p10
S'05ee7ccf24b64ba7907f60cc86692091'
p11
sb.