ccopy_reg
_reconstructor
p1
(cfoobnix.fc.fc
FC
p2
c__builtin__
object
p3
NtRp4
(dp5
S'is_view_coverlyrics_panel'
p6
I00
sS'is_save_online'
p7
I01
sS'check_new_version'
p8
I01
sS'last_dir'
p9
NsS'enable_music_scrobbler'
p10
I01
sS'main_window_size'
p11
(lp12
I1935
aI1122
aI940
aI1143
asS'on_close_window'
p13
S'ON_CLOSE_CLOSE'
p14
sS'columns'
p15
(dp16
S'Album'
p17
(lp18
I00
aI7
aI90
asS'Track'
p19
(lp20
I01
aI2
aI450
asS'Time'
p21
(lp22
I01
aI3
aI333
asS'Composer'
p23
(lp24
I00
aI4
aI80
asS'Artist'
p25
(lp26
I00
aI5
aI90
asS'Title'
p27
(lp28
I00
aI6
aI70
asS'*'
(lp29
I01
aI0
aI40
asS'N'
(lp30
I01
aI1
aI30
assS'antiscreensaver'
p31
I00
sS'proxy_enable'
p32
I00
sS'order_repeat_style'
p33
S'ToggleButtons'
p34
sS'tab_close_element'
p35
S'label'
p36
sS'search_limit'
p37
F50
sS'notifier'
p38
I01
sS'menu_style'
p39
S'new'
p40
sS'play_icon_entry'
p41
S'images/foobnix-play.png'
p42
sS'proxy_password'
p43
NsS'radio_icon_entry'
p44
S'images/foobnix-radio.jpg'
p45
sS'background_image'
p46
NsS'enable_radio_scrobbler'
p47
I01
sS'media_volume_keys'
p48
(dp49
S'volume_down'
p50
S'XF86AudioLowerVolume'
p51
sS'mute'
p52
S'XF86AudioMute'
p53
sS'volume_up'
p54
S'XF86AudioRaiseVolume'
p55
ssS'count_of_tabs'
p56
I5
sS'is_eq_enable'
p57
I00
sS'virtual_selected_paths'
p58
(lp59
sS'nav_selected_paths'
p60
(lp61
sS'virtual_expand_paths'
p62
(lp63
sS'stop_icon_entry'
p64
S'images/foobnix-stop.png'
p65
sS'update_tree_on_start'
p66
I00
sS'static_tray_icon'
p67
I01
sS'hpaned_left'
p68
I939
sS'is_view_music_tree_panel'
p69
I01
sS'active_manager'
p70
(lp71
I0
aS'--- auto ---'
p72
asS'eq_presets_default'
p73
S'CUSTOM'
p74
sS'agent_line'
p75
S'Mozilla/5.0 (Windows; U; Windows NT 6.1; en-US; rv:1.9.1.1) Gecko/20090718 Firefox/3.5.1'
p76
sS'proxy_user'
p77
NsS'is_view_info_panel'
p78
I01
sS'change_tray_icon'
p79
I00
sS'pl_selected_tab'
p80
L0L
sS'nosubfolder'
p81
I00
sS'hpaned_right_right_side_width'
p82
I174
sS'multimedia_keys'
p83
(dp84
S'play_pause'
p85
S'XF86AudioPlay'
p86
sS'state_stop'
p87
S'XF86AudioStop'
p88
sg52
g53
sS'next'
p89
S'XF86AudioNext'
p90
sg50
g51
sS'prev'
p91
S'XF86AudioPrev'
p92
sg54
g55
ssS'background_image_themes'
p93
(lp94
S'theme/cat.jpg'
p95
aS'theme/flower.jpg'
p96
aS'theme/winter.jpg'
p97
asS'is_view_lyric_panel'
p98
I01
sS'system_icons_dinamic'
p99
I00
sS'file_managers'
p100
(lp101
S'nautilus'
p102
aS'dolphin'
p103
aS'konqueror'
p104
aS'thunar'
p105
aS'pcmanfm'
p106
aS'krusader'
p107
aS'explorer'
p108
asS'is_order_random'
p109
I00
sS'nav_expand_paths'
p110
(lp111
sS'all_support_formats'
p112
(lp113
S'.aac'
p114
aS'.ac3'
p115
aS'.aiff'
p116
aS'.ape'
p117
aS'.au'
p118
aS'.cue'
p119
aS'.flac'
p120
aS'.iso.wv'
p121
aS'.m3u'
p122
aS'.m3u8'
p123
aS'.m4a'
p124
aS'.m4p'
p125
aS'.mp3'
p126
aS'.mpc'
p127
aS'.ogg'
p128
aS'.ra'
p129
aS'.raw'
p130
aS'.shn'
p131
aS'.wav'
p132
aS'.wma'
p133
aS'.wv'
p134
asS'user_id'
p135
NsS'auto_start_donwload'
p136
I01
sS'window_maximized'
p137
I00
sS'vpaned_small'
p138
I100
sS'show_tray_icon'
p139
I01
sS'radio_selected_paths'
p140
(lp141
sS'volume'
p142
F90
sS'media_keys_enabled'
p143
I01
sS'is_view_search_panel'
p144
I01
sS'gap_secs'
p145
F0
sS'access_token'
p146
NsS'proxy_url'
p147
NsS'hide_on_start'
p148
I00
sS'temp_volume'
p149
I90
sS'nav_selected_tab'
p150
I0
sS'automatic_online_save'
p151
I00
sS'media_volume_keys_enabled'
p152
I00
sS'hpaned_right'
p153
I800
sS'online_save_to_folder'
p154
S'/tmp'
p155
sS'is_my_radio_active'
p156
I00
sS'tab_position'
p157
S'top'
p158
sS'playlist_type'
p159
S'PLAYLIST_TREE'
p160
sS'audio_formats'
p161
(lp162
S'.mp3'
p163
aS'.ogg'
p164
aS'.ape'
p165
aS'.flac'
p166
aS'.wma'
p167
aS'.mpc'
p168
aS'.aiff'
p169
aS'.raw'
p170
aS'.au'
p171
aS'.aac'
p172
aS'.ac3'
p173
aS'.m4a'
p174
aS'.ra'
p175
aS'.m4p'
p176
aS'.wv'
p177
aS'.shn'
p178
aS'.wav'
p179
asS'eq_presets'
p180
NsS'show_full_filename'
p181
I00
sS'action_hotkey'
p182
ccollections
OrderedDict
p183
((lp184
(lp185
S'next'
p186
aS'<SUPER>Right'
p187
aa(lp188
S'prev'
p189
aS'<SUPER>Left'
p190
aa(lp191
S'download'
p192
aS'<Control><SUPER>z'
p193
aa(lp194
S'play_pause'
p195
aS'<SUPER>z'
p196
aa(lp197
S'state_stop'
p198
aS'<SUPER>x'
p199
aa(lp200
S'volume_down'
p201
aS'<SUPER>Down'
p202
aa(lp203
S'show_hide'
p204
aS'<SUPER>a'
p205
aa(lp206
S'volume_up'
p207
aS'<SUPER>Up'
p208
aatRp209
sS'radio_expand_paths'
p210
(lp211
sS'enable_vk_autocomlete'
p212
I00
sS'is_info_panel_show_tags'
p213
I00
sS'info_panel_image_size'
p214
I150
sS'all_icons'
p215
(lp216
S'images/foobnix.png'
p217
aS'images/foobnix-play.png'
p218
aS'images/foobnix-pause.png'
p219
aS'images/foobnix-stop.png'
p220
aS'images/foobnix-radio.jpg'
p221
aS'images/foobnix-tux.gif'
p222
asS'network_buffer_size'
p223
F128
sS'repeat_state'
p224
S'REPEAT_ALL'
p225
sS'is_view_video_panel'
p226
I00
sS'len_of_tab'
p227
I30
sS'static_icon_entry'
p228
S'images/foobnix.png'
p229
sS'tabs_mode'
p230
S'Multi'
p231
sS'net_ping'
p232
I00
sS'left_perspective'
p233
S'info'
p234
sS'tooltip_image_size'
p235
I150
sS'window_opacity'
p236
F1
sS'pause_icon_entry'
p237
S'images/foobnix-pause.png'
p238
sS'amount_dm_threads'
p239
I3
sS'notify_time'
p240
I3000
sb.